; Function Attrs: mustprogress nofree norecurse nosync nounwind willreturn memory(read, inaccessiblemem: none) uwtable
define dso_local noundef i64 @_ZN9struct_pb8internal15get_needed_sizeIN8tutorial6Person11PhoneNumberEEEmRKT_RKNS_13UnknownFieldsE(ptr noundef nonnull readonly align 8 captures(none) dereferenceable(36) %t, ptr noundef nonnull readonly align 8 captures(none) dereferenceable(24) %unknown_fields) local_unnamed_addr #0 {
entry:
  %0 = load ptr, ptr %unknown_fields, align 8
  %_M_finish.i.i = getelementptr inbounds nuw i8, ptr %unknown_fields, i64 8
  %1 = load ptr, ptr %_M_finish.i.i, align 8
  %cmp.i5.i = icmp eq ptr %0, %1
  br i1 %cmp.i5.i, label %_ZNK9struct_pb13UnknownFields10total_sizeEv.exit, label %for.body.i

for.body.i:                                       ; preds = %entry, %for.body.i
  %total.07.i = phi i64 [ %add.i, %for.body.i ], [ 0, %entry ]
  %__begin2.sroa.0.06.i = phi ptr [ %incdec.ptr.i.i, %for.body.i ], [ %0, %entry ]
  %len.i = getelementptr inbounds nuw i8, ptr %__begin2.sroa.0.06.i, i64 8
  %2 = load i64, ptr %len.i, align 8
  %add.i = add i64 %2, %total.07.i
  %incdec.ptr.i.i = getelementptr inbounds nuw i8, ptr %__begin2.sroa.0.06.i, i64 16
  %cmp.i.i = icmp eq ptr %incdec.ptr.i.i, %1
  br i1 %cmp.i.i, label %_ZNK9struct_pb13UnknownFields10total_sizeEv.exit, label %for.body.i

_ZNK9struct_pb13UnknownFields10total_sizeEv.exit: ; preds = %for.body.i, %entry
  %total.0.lcssa.i = phi i64 [ 0, %entry ], [ %add.i, %for.body.i ]
  %_M_string_length.i.i = getelementptr inbounds nuw i8, ptr %t, i64 8
  %3 = load i64, ptr %_M_string_length.i.i, align 8
  %cmp.i = icmp eq i64 %3, 0
  br i1 %cmp.i, label %if.end, label %do.body.i17

do.body.i17:                                      ; preds = %_ZNK9struct_pb13UnknownFields10total_sizeEv.exit, %do.body.i17
  %ret.i16.0 = phi i64 [ %inc.i18, %do.body.i17 ], [ 0, %_ZNK9struct_pb13UnknownFields10total_sizeEv.exit ]
  %v.addr.i15.0 = phi i64 [ %shr.i19, %do.body.i17 ], [ %3, %_ZNK9struct_pb13UnknownFields10total_sizeEv.exit ]
  %inc.i18 = add nuw nsw i64 %ret.i16.0, 1
  %shr.i19 = lshr i64 %v.addr.i15.0, 7
  %cmp.i20.not = icmp ult i64 %v.addr.i15.0, 128
  br i1 %cmp.i20.not, label %_ZN9struct_pb8internal21calculate_varint_sizeEm.exit21, label %do.body.i17, !llvm.loop !5

_ZN9struct_pb8internal21calculate_varint_sizeEm.exit21: ; preds = %do.body.i17
  %add = add i64 %total.0.lcssa.i, 2
  %add7 = add i64 %add, %3
  %add8 = add i64 %add7, %ret.i16.0
  br label %if.end

if.end:                                           ; preds = %_ZN9struct_pb8internal21calculate_varint_sizeEm.exit21, %_ZNK9struct_pb13UnknownFields10total_sizeEv.exit
  %total.0 = phi i64 [ %total.0.lcssa.i, %_ZNK9struct_pb13UnknownFields10total_sizeEv.exit ], [ %add8, %_ZN9struct_pb8internal21calculate_varint_sizeEm.exit21 ]
  %type = getelementptr inbounds nuw i8, ptr %t, i64 32
  %4 = load i32, ptr %type, align 8
  %cmp.not = icmp eq i32 %4, 0
  br i1 %cmp.not, label %if.end14, label %if.then9

if.then9:                                         ; preds = %if.end
  %conv = sext i32 %4 to i64
  br label %do.body.i

do.body.i:                                        ; preds = %do.body.i, %if.then9
  %v.addr.i.0 = phi i64 [ %conv, %if.then9 ], [ %shr.i, %do.body.i ]
  %ret.i.0 = phi i64 [ 0, %if.then9 ], [ %inc.i, %do.body.i ]
  %inc.i = add nuw nsw i64 %ret.i.0, 1
  %shr.i = lshr i64 %v.addr.i.0, 7
  %cmp.i.not = icmp ult i64 %v.addr.i.0, 128
  br i1 %cmp.i.not, label %_ZN9struct_pb8internal21calculate_varint_sizeEm.exit, label %do.body.i, !llvm.loop !5

_ZN9struct_pb8internal21calculate_varint_sizeEm.exit: ; preds = %do.body.i
  %add12 = add i64 %total.0, 2
  %add13 = add i64 %add12, %ret.i.0
  br label %if.end14

if.end14:                                         ; preds = %_ZN9struct_pb8internal21calculate_varint_sizeEm.exit, %if.end
  %total.1 = phi i64 [ %add13, %_ZN9struct_pb8internal21calculate_varint_sizeEm.exit ], [ %total.0, %if.end ]
  ret i64 %total.1
}